target datalayout = "e-m:e-p270:32:32-p271:32:32-p272:64:64-i64:64-i128:128-f80:128-n8:16:32:64-S128"
target triple = "x86_64-pc-linux-gnu"

%struct.FunctionCallInfoBaseData = type { ptr, ptr, ptr, i32, i8, i16, [0 x %struct.NullableDatum] }
%struct.NullableDatum = type { i64, i8 }
%struct.nameData = type { [64 x i8] }
%struct.HeapTupleData = type { i32, %struct.ItemPointerData, i32, ptr }
%struct.ItemPointerData = type { %struct.BlockIdData, i16 }
%struct.BlockIdData = type { i16, i16 }
%struct.HeapTupleHeaderData = type { %union.anon, %struct.ItemPointerData, i16, i16, i8, [0 x i8] }
%union.anon = type { %struct.HeapTupleFields }
%struct.HeapTupleFields = type { i32, i32, %union.anon.0 }
%union.anon.0 = type { i32 }
%struct.FormData_pg_type = type { i32, %struct.nameData, i32, i32, i16, i8, i8, i8, i8, i8, i8, i32, i32, i32, i32, i32, i32, i32, i32, i32, i32, i32, i8, i8, i8, i32, i32, i32, i32 }

@Mode = external global i32, align 4
@.str.4 = private unnamed_addr constant [2 x i8] c"-\00", align 1
@.str.5 = private unnamed_addr constant [3 x i8] c"%u\00", align 1

; Function Attrs: inlinehint nounwind uwtable
define internal i64 @PointerGetDatum(ptr noundef %0) #2 {
  %2 = alloca ptr, align 8
  store ptr %0, ptr %2, align 8
  %3 = load ptr, ptr %2, align 8
  %4 = ptrtoint ptr %3 to i64
  ret i64 %4
}

; Function Attrs: inlinehint nounwind uwtable
define internal ptr @GETSTRUCT(ptr noundef %0) #2 {
  %2 = alloca ptr, align 8
  store ptr %0, ptr %2, align 8
  %3 = load ptr, ptr %2, align 8
  %4 = getelementptr inbounds nuw %struct.HeapTupleData, ptr %3, i32 0, i32 3
  %5 = load ptr, ptr %4, align 8
  %6 = load ptr, ptr %2, align 8
  %7 = getelementptr inbounds nuw %struct.HeapTupleData, ptr %6, i32 0, i32 3
  %8 = load ptr, ptr %7, align 8
  %9 = getelementptr inbounds nuw %struct.HeapTupleHeaderData, ptr %8, i32 0, i32 4
  %10 = load i8, ptr %9, align 2
  %11 = zext i8 %10 to i32
  %12 = sext i32 %11 to i64
  %13 = getelementptr inbounds i8, ptr %5, i64 %12
  ret ptr %13
}

; Function Attrs: inlinehint nounwind uwtable
define internal i64 @ObjectIdGetDatum(i32 noundef %0) #2 {
  %2 = alloca i32, align 4
  store i32 %0, ptr %2, align 4
  %3 = load i32, ptr %2, align 4
  %4 = zext i32 %3 to i64
  ret i64 %4
}

; Function Attrs: inlinehint nounwind uwtable
define internal i64 @CStringGetDatum(ptr noundef %0) #2 {
  %2 = alloca ptr, align 8
  store ptr %0, ptr %2, align 8
  %3 = load ptr, ptr %2, align 8
  %4 = call i64 @PointerGetDatum(ptr noundef %3)
  ret i64 %4
}

; Function Attrs: inlinehint nounwind uwtable
define internal i32 @DatumGetObjectId(i64 noundef %0) #2 {
  %2 = alloca i64, align 8
  store i64 %0, ptr %2, align 8
  %3 = load i64, ptr %2, align 8
  %4 = trunc i64 %3 to i32
  ret i32 %4
}

; Function Attrs: nounwind uwtable
define dso_local i64 @regtypeout(ptr noundef %0) #0 {
  %2 = alloca i64, align 8
  %3 = alloca ptr, align 8
  %4 = alloca i32, align 4
  %5 = alloca ptr, align 8
  %6 = alloca ptr, align 8
  %7 = alloca i32, align 4
  %8 = alloca ptr, align 8
  %9 = alloca ptr, align 8
  store ptr %0, ptr %3, align 8
  call void @llvm.lifetime.start.p0(i64 4, ptr %4) #8
  %10 = load ptr, ptr %3, align 8
  %11 = getelementptr inbounds nuw %struct.FunctionCallInfoBaseData, ptr %10, i32 0, i32 6
  %12 = getelementptr inbounds [0 x %struct.NullableDatum], ptr %11, i64 0, i64 0
  %13 = getelementptr inbounds nuw %struct.NullableDatum, ptr %12, i32 0, i32 0
  %14 = load i64, ptr %13, align 8
  %15 = call i32 @DatumGetObjectId(i64 noundef %14)
  store i32 %15, ptr %4, align 4
  call void @llvm.lifetime.start.p0(i64 8, ptr %5) #8
  call void @llvm.lifetime.start.p0(i64 8, ptr %6) #8
  %16 = load i32, ptr %4, align 4
  %17 = icmp eq i32 %16, 0
  br i1 %17, label %18, label %22

18:                                               ; preds = %1
  %19 = call ptr @pstrdup(ptr noundef @.str.4)
  store ptr %19, ptr %5, align 8
  %20 = load ptr, ptr %5, align 8
  %21 = call i64 @CStringGetDatum(ptr noundef %20)
  store i64 %21, ptr %2, align 8
  store i32 1, ptr %7, align 4
  br label %53

22:                                               ; preds = %1
  %23 = load i32, ptr %4, align 4
  %24 = call i64 @ObjectIdGetDatum(i32 noundef %23)
  %25 = call ptr @SearchSysCache1(i32 noundef 82, i64 noundef %24)
  store ptr %25, ptr %6, align 8
  %26 = load ptr, ptr %6, align 8
  %27 = icmp ne ptr %26, null
  br i1 %27, label %28, label %45

28:                                               ; preds = %22
  call void @llvm.lifetime.start.p0(i64 8, ptr %8) #8
  %29 = load ptr, ptr %6, align 8
  %30 = call ptr @GETSTRUCT(ptr noundef %29)
  store ptr %30, ptr %8, align 8
  %31 = load i32, ptr @Mode, align 4
  %32 = icmp eq i32 %31, 0
  br i1 %32, label %33, label %40

33:                                               ; preds = %28
  call void @llvm.lifetime.start.p0(i64 8, ptr %9) #8
  %34 = load ptr, ptr %8, align 8
  %35 = getelementptr inbounds nuw %struct.FormData_pg_type, ptr %34, i32 0, i32 1
  %36 = getelementptr inbounds nuw %struct.nameData, ptr %35, i32 0, i32 0
  %37 = getelementptr inbounds [64 x i8], ptr %36, i64 0, i64 0
  store ptr %37, ptr %9, align 8
  %38 = load ptr, ptr %9, align 8
  %39 = call ptr @pstrdup(ptr noundef %38)
  store ptr %39, ptr %5, align 8
  call void @llvm.lifetime.end.p0(i64 8, ptr %9) #8
  br label %43

40:                                               ; preds = %28
  %41 = load i32, ptr %4, align 4
  %42 = call ptr @format_type_be(i32 noundef %41)
  store ptr %42, ptr %5, align 8
  br label %43

43:                                               ; preds = %40, %33
  %44 = load ptr, ptr %6, align 8
  call void @ReleaseSysCache(ptr noundef %44)
  call void @llvm.lifetime.end.p0(i64 8, ptr %8) #8
  br label %50

45:                                               ; preds = %22
  %46 = call ptr @palloc(i64 noundef 64)
  store ptr %46, ptr %5, align 8
  %47 = load ptr, ptr %5, align 8
  %48 = load i32, ptr %4, align 4
  %49 = call i32 (ptr, i64, ptr, ...) @pg_snprintf(ptr noundef %47, i64 noundef 64, ptr noundef @.str.5, i32 noundef %48)
  br label %50

50:                                               ; preds = %45, %43
  %51 = load ptr, ptr %5, align 8
  %52 = call i64 @CStringGetDatum(ptr noundef %51)
  store i64 %52, ptr %2, align 8
  store i32 1, ptr %7, align 4
  br label %53

53:                                               ; preds = %50, %18
  call void @llvm.lifetime.end.p0(i64 8, ptr %6) #8
  call void @llvm.lifetime.end.p0(i64 8, ptr %5) #8
  call void @llvm.lifetime.end.p0(i64 4, ptr %4) #8
  %54 = load i64, ptr %2, align 8
  ret i64 %54
}