; Function Attrs: nounwind uwtable
define dso_local i64 @regtypeout(ptr noundef readonly captures(none) %0) local_unnamed_addr #0 {
  %2 = getelementptr inbounds nuw i8, ptr %0, i64 32
  %3 = load i64, ptr %2, align 8
  %4 = trunc i64 %3 to i32
  %5 = icmp eq i32 %4, 0
  br i1 %5, label %6, label %8

6:                                                ; preds = %1
  %7 = tail call ptr @pstrdup(ptr noundef nonnull @.str.4) #9
  br label %28

8:                                                ; preds = %1
  %9 = and i64 %3, 4294967295
  %10 = tail call ptr @SearchSysCache1(i32 noundef 82, i64 noundef %9) #9
  %.not = icmp eq ptr %10, null
  br i1 %.not, label %25, label %11

11:                                               ; preds = %8
  %12 = load i32, ptr @Mode, align 4
  %13 = icmp eq i32 %12, 0
  br i1 %13, label %14, label %22

14:                                               ; preds = %11
  %15 = getelementptr i8, ptr %10, i64 16
  %.val = load ptr, ptr %15, align 8
  %16 = getelementptr inbounds nuw i8, ptr %.val, i64 22
  %17 = load i8, ptr %16, align 2
  %18 = zext i8 %17 to i64
  %19 = getelementptr inbounds nuw i8, ptr %.val, i64 %18
  %20 = getelementptr inbounds nuw i8, ptr %19, i64 4
  %21 = tail call ptr @pstrdup(ptr noundef nonnull %20) #9
  br label %24

22:                                               ; preds = %11
  %23 = tail call ptr @format_type_be(i32 noundef %4) #9
  br label %24

24:                                               ; preds = %22, %14
  %.013 = phi ptr [ %21, %14 ], [ %23, %22 ]
  tail call void @ReleaseSysCache(ptr noundef nonnull %10) #9
  br label %28

25:                                               ; preds = %8
  %26 = tail call ptr @palloc(i64 noundef 64) #9
  %27 = tail call i32 (ptr, i64, ptr, ...) @pg_snprintf(ptr noundef %26, i64 noundef 64, ptr noundef nonnull @.str.5, i32 noundef %4) #9
  br label %28

28:                                               ; preds = %24, %25, %6
  %.0.in = phi ptr [ %7, %6 ], [ %.013, %24 ], [ %26, %25 ]
  %.0 = ptrtoint ptr %.0.in to i64
  ret i64 %.0
}